; Function Attrs: mustprogress nounwind uwtable
define internal void @_ZN7rocksdb12_GLOBAL__N_115PosixFileSystemD2Ev(ptr noundef nonnull align 8 dereferenceable(57) %this) unnamed_addr #3 align 2 {
entry:
  store ptr getelementptr inbounds ({ [65 x ptr] }, ptr @_ZTVN7rocksdb12_GLOBAL__N_115PosixFileSystemE, i64 0, i32 0, i64 2), ptr %this, align 8
  %thread_local_io_urings_ = getelementptr inbounds i8, ptr %this, i64 40
  %0 = load ptr, ptr %thread_local_io_urings_, align 8
  %cmp.not.i = icmp eq ptr %0, null
  br i1 %cmp.not.i, label %_ZNSt10unique_ptrIN7rocksdb14ThreadLocalPtrESt14default_deleteIS1_EED2Ev.exit, label %_ZNKSt14default_deleteIN7rocksdb14ThreadLocalPtrEEclEPS1_.exit.i

_ZNKSt14default_deleteIN7rocksdb14ThreadLocalPtrEEclEPS1_.exit.i: ; preds = %entry
  tail call void @_ZN7rocksdb14ThreadLocalPtrD1Ev(ptr noundef nonnull align 4 dereferenceable(4) %0) #29
  tail call void @_ZdlPv(ptr noundef nonnull %0) #32
  br label %_ZNSt10unique_ptrIN7rocksdb14ThreadLocalPtrESt14default_deleteIS1_EED2Ev.exit

_ZNSt10unique_ptrIN7rocksdb14ThreadLocalPtrESt14default_deleteIS1_EED2Ev.exit: ; preds = %entry, %_ZNKSt14default_deleteIN7rocksdb14ThreadLocalPtrEEclEPS1_.exit.i
  store ptr null, ptr %thread_local_io_urings_, align 8
  tail call void @_ZN7rocksdb10FileSystemD2Ev(ptr noundef nonnull align 8 dereferenceable(32) %this) #29
  ret void
}